target datalayout = "e-m:e-p270:32:32-p271:32:32-p272:64:64-i64:64-i128:128-f80:128-n8:16:32:64-S128"
target triple = "x86_64-pc-linux-gnu"

%"class.glslang::HlslGrammar" = type { %"class.glslang::HlslTokenStream.base", ptr, ptr, i8, ptr }
%"class.glslang::HlslTokenStream.base" = type <{ ptr, %"struct.glslang::HlslToken", ptr, %"class.glslang::TVector", %"class.glslang::TVector.0", %"class.glslang::TVector.4", [2 x %"struct.glslang::HlslToken"], i32, [4 x i8], [2 x %"struct.glslang::HlslToken"], i32 }>
%"struct.glslang::HlslToken" = type { %"struct.glslang::TSourceLoc", i32, %union.anon }
%"struct.glslang::TSourceLoc" = type { ptr, i32, i32, i32 }
%union.anon = type { ptr }
%"class.glslang::TVector" = type { %"class.std::vector" }
%"class.std::vector" = type { %"struct.std::_Vector_base" }
%"struct.std::_Vector_base" = type { %"struct.std::_Vector_base<const glslang::TVector<glslang::HlslToken> *, glslang::pool_allocator<const glslang::TVector<glslang::HlslToken> *>>::_Vector_impl" }
%"struct.std::_Vector_base<const glslang::TVector<glslang::HlslToken> *, glslang::pool_allocator<const glslang::TVector<glslang::HlslToken> *>>::_Vector_impl" = type { %"class.glslang::pool_allocator", %"struct.std::_Vector_base<const glslang::TVector<glslang::HlslToken> *, glslang::pool_allocator<const glslang::TVector<glslang::HlslToken> *>>::_Vector_impl_data" }
%"class.glslang::pool_allocator" = type { ptr }
%"struct.std::_Vector_base<const glslang::TVector<glslang::HlslToken> *, glslang::pool_allocator<const glslang::TVector<glslang::HlslToken> *>>::_Vector_impl_data" = type { ptr, ptr, ptr }
%"class.glslang::TVector.0" = type { %"class.std::vector.1" }
%"class.std::vector.1" = type { %"struct.std::_Vector_base.2" }
%"struct.std::_Vector_base.2" = type { %"struct.std::_Vector_base<int, glslang::pool_allocator<int>>::_Vector_impl" }
%"struct.std::_Vector_base<int, glslang::pool_allocator<int>>::_Vector_impl" = type { %"class.glslang::pool_allocator.3", %"struct.std::_Vector_base<int, glslang::pool_allocator<int>>::_Vector_impl_data" }
%"class.glslang::pool_allocator.3" = type { ptr }
%"struct.std::_Vector_base<int, glslang::pool_allocator<int>>::_Vector_impl_data" = type { ptr, ptr, ptr }
%"class.glslang::TVector.4" = type { %"class.std::vector.5" }
%"class.std::vector.5" = type { %"struct.std::_Vector_base.6" }
%"struct.std::_Vector_base.6" = type { %"struct.std::_Vector_base<glslang::HlslToken, glslang::pool_allocator<glslang::HlslToken>>::_Vector_impl" }
%"struct.std::_Vector_base<glslang::HlslToken, glslang::pool_allocator<glslang::HlslToken>>::_Vector_impl" = type { %"class.glslang::pool_allocator.7", %"struct.std::_Vector_base<glslang::HlslToken, glslang::pool_allocator<glslang::HlslToken>>::_Vector_impl_data" }
%"class.glslang::pool_allocator.7" = type { ptr }
%"struct.std::_Vector_base<glslang::HlslToken, glslang::pool_allocator<glslang::HlslToken>>::_Vector_impl_data" = type { ptr, ptr, ptr }
%"class.glslang::HlslTokenStream" = type <{ ptr, %"struct.glslang::HlslToken", ptr, %"class.glslang::TVector", %"class.glslang::TVector.0", %"class.glslang::TVector.4", [2 x %"struct.glslang::HlslToken"], i32, [4 x i8], [2 x %"struct.glslang::HlslToken"], i32, [4 x i8] }>
%"class.glslang::TType" = type { ptr, i32, [4 x i8], %"class.glslang::TQualifier", ptr, %union.anon.220, ptr, ptr, %"struct.glslang::TSampler", ptr, ptr }
%"class.glslang::TQualifier" = type <{ ptr, i64, i8, [3 x i8], i32, i32, i64, i64, i8, i8, i8, i8, i8, [3 x i8], i32, i8, i8, i8, i8, i32, ptr, i8, i8, [6 x i8] }>
%union.anon.220 = type { ptr }
%"struct.glslang::TSampler" = type { i32 }
%"class.glslang::TIntermConstantUnion" = type <{ %"class.glslang::TIntermTyped", %"class.glslang::TConstUnionArray", i8, [7 x i8] }>
%"class.glslang::TIntermTyped" = type { %class.TIntermNode, %"class.glslang::TType" }
%class.TIntermNode = type { ptr, %"struct.glslang::TSourceLoc" }
%"class.glslang::TConstUnionArray" = type { ptr, ptr }
%"class.glslang::TConstUnion" = type <{ %union.anon.242, i32, [4 x i8] }>
%union.anon.242 = type { i64 }
%"struct.glslang::TArraySizes" = type <{ %"struct.glslang::TSmallArrayVector", i32, i8, i8, [2 x i8] }>
%"struct.glslang::TSmallArrayVector" = type { ptr, ptr }
%"struct.std::_Vector_base.304" = type { %"struct.std::_Vector_base<glslang::TConstUnion, glslang::pool_allocator<glslang::TConstUnion>>::_Vector_impl" }
%"struct.std::_Vector_base<glslang::TConstUnion, glslang::pool_allocator<glslang::TConstUnion>>::_Vector_impl" = type { %"class.glslang::pool_allocator.305", %"struct.std::_Vector_base<glslang::TConstUnion, glslang::pool_allocator<glslang::TConstUnion>>::_Vector_impl_data" }
%"class.glslang::pool_allocator.305" = type { ptr }
%"struct.std::_Vector_base<glslang::TConstUnion, glslang::pool_allocator<glslang::TConstUnion>>::_Vector_impl_data" = type { ptr, ptr, ptr }

@.str = private unnamed_addr constant [9 x i8] c"Expected\00", align 1
@.str.1 = private unnamed_addr constant [1 x i8] zeroinitializer, align 1
@.str.46 = private unnamed_addr constant [16 x i8] c"literal integer\00", align 1
@.str.47 = private unnamed_addr constant [20 x i8] c"right angle bracket\00", align 1
@.str.48 = private unnamed_addr constant [24 x i8] c"tessellation patch type\00", align 1
@_ZTVN7glslang17TSmallArrayVectorE = linkonce_odr unnamed_addr constant { [4 x ptr] } { [4 x ptr] [ptr null, ptr null, ptr @_ZN7glslang17TSmallArrayVectorD2Ev, ptr @_ZN7glslang17TSmallArrayVectorD0Ev] }, comdat, align 8

; Function Attrs: mustprogress nounwind uwtable
define linkonce_odr void @_ZN7glslang11TArraySizes12addInnerSizeEiPNS_12TIntermTypedE(ptr noundef nonnull align 8 dereferenceable(22) %0, i32 noundef %1, ptr noundef %2) #0 comdat align 2 {
  %4 = alloca ptr, align 8
  %5 = alloca i32, align 4
  %6 = alloca ptr, align 8
  store ptr %0, ptr %4, align 8
  store i32 %1, ptr %5, align 4
  store ptr %2, ptr %6, align 8
  %7 = load ptr, ptr %4, align 8
  %8 = getelementptr inbounds %"struct.glslang::TArraySizes", ptr %7, i32 0, i32 0
  %9 = load i32, ptr %5, align 4
  %10 = load ptr, ptr %6, align 8
  call void @_ZN7glslang17TSmallArrayVector9push_backEjPNS_12TIntermTypedE(ptr noundef nonnull align 8 dereferenceable(16) %8, i32 noundef %9, ptr noundef %10)
  ret void
}

; Function Attrs: mustprogress nounwind uwtable
define linkonce_odr noundef nonnull align 8 dereferenceable(12) ptr @_ZNSt6vectorIN7glslang11TConstUnionENS0_14pool_allocatorIS1_EEEixEm(ptr noundef nonnull align 8 dereferenceable(32) %0, i64 noundef %1) #0 comdat align 2 {
  %3 = alloca ptr, align 8
  %4 = alloca i64, align 8
  store ptr %0, ptr %3, align 8
  store i64 %1, ptr %4, align 8
  %5 = load ptr, ptr %3, align 8
  %6 = getelementptr inbounds %"struct.std::_Vector_base.304", ptr %5, i32 0, i32 0
  %7 = getelementptr inbounds i8, ptr %6, i64 8
  %8 = getelementptr inbounds %"struct.std::_Vector_base<glslang::TConstUnion, glslang::pool_allocator<glslang::TConstUnion>>::_Vector_impl_data", ptr %7, i32 0, i32 0
  %9 = load ptr, ptr %8, align 8
  %10 = load i64, ptr %4, align 8
  %11 = getelementptr inbounds %"class.glslang::TConstUnion", ptr %9, i64 %10
  ret ptr %11
}

; Function Attrs: mustprogress nounwind uwtable
define linkonce_odr void @_ZN7glslang17TSmallArrayVectorC2Ev(ptr noundef nonnull align 8 dereferenceable(16) %0) unnamed_addr #0 comdat align 2 {
  %2 = alloca ptr, align 8
  store ptr %0, ptr %2, align 8
  %3 = load ptr, ptr %2, align 8
  store ptr getelementptr inbounds inrange(-16, 16) ({ [4 x ptr] }, ptr @_ZTVN7glslang17TSmallArrayVectorE, i32 0, i32 0, i32 2), ptr %3, align 8
  %4 = getelementptr inbounds %"struct.glslang::TSmallArrayVector", ptr %3, i32 0, i32 1
  store ptr null, ptr %4, align 8
  ret void
}

; Function Attrs: mustprogress nounwind uwtable
define linkonce_odr void @_ZN7glslang5TType18transferArraySizesEPNS_11TArraySizesE(ptr noundef nonnull align 8 dereferenceable(152) %0, ptr noundef %1) #0 comdat align 2 {
  %3 = alloca ptr, align 8
  %4 = alloca ptr, align 8
  store ptr %0, ptr %3, align 8
  store ptr %1, ptr %4, align 8
  %5 = load ptr, ptr %3, align 8
  %6 = load ptr, ptr %4, align 8
  %7 = getelementptr inbounds %"class.glslang::TType", ptr %5, i32 0, i32 4
  store ptr %6, ptr %7, align 8
  ret void
}

; Function Attrs: mustprogress nounwind uwtable
define linkonce_odr void @_ZN7glslang11TArraySizes12addInnerSizeEi(ptr noundef nonnull align 8 dereferenceable(22) %0, i32 noundef %1) #0 comdat align 2 {
  %3 = alloca ptr, align 8
  %4 = alloca i32, align 4
  store ptr %0, ptr %3, align 8
  store i32 %1, ptr %4, align 4
  %5 = load ptr, ptr %3, align 8
  %6 = load i32, ptr %4, align 4
  call void @_ZN7glslang11TArraySizes12addInnerSizeEiPNS_12TIntermTypedE(ptr noundef nonnull align 8 dereferenceable(22) %5, i32 noundef %6, ptr noundef null)
  ret void
}

; Function Attrs: mustprogress nounwind uwtable
define linkonce_odr noundef i32 @_ZNK7glslang11TConstUnion9getIConstEv(ptr noundef nonnull align 8 dereferenceable(12) %0) #0 comdat align 2 {
  %2 = alloca ptr, align 8
  store ptr %0, ptr %2, align 8
  %3 = load ptr, ptr %2, align 8
  %4 = getelementptr inbounds %"class.glslang::TConstUnion", ptr %3, i32 0, i32 0
  %5 = load i32, ptr %4, align 8
  ret i32 %5
}

; Function Attrs: mustprogress nounwind uwtable
define linkonce_odr noundef nonnull align 8 dereferenceable(12) ptr @_ZNK7glslang16TConstUnionArrayixEm(ptr noundef nonnull align 8 dereferenceable(16) %0, i64 noundef %1) #0 comdat align 2 {
  %3 = alloca ptr, align 8
  %4 = alloca i64, align 8
  store ptr %0, ptr %3, align 8
  store i64 %1, ptr %4, align 8
  %5 = load ptr, ptr %3, align 8
  %6 = getelementptr inbounds %"class.glslang::TConstUnionArray", ptr %5, i32 0, i32 1
  %7 = load ptr, ptr %6, align 8
  %8 = load i64, ptr %4, align 8
  %9 = call noundef nonnull align 8 dereferenceable(12) ptr @_ZNSt6vectorIN7glslang11TConstUnionENS0_14pool_allocatorIS1_EEEixEm(ptr noundef nonnull align 8 dereferenceable(32) %7, i64 noundef %8) #11
  ret ptr %9
}

; Function Attrs: mustprogress nounwind uwtable
define linkonce_odr noundef nonnull align 8 dereferenceable(16) ptr @_ZNK7glslang20TIntermConstantUnion13getConstArrayEv(ptr noundef nonnull align 8 dereferenceable(201) %0) #0 comdat align 2 {
  %2 = alloca ptr, align 8
  store ptr %0, ptr %2, align 8
  %3 = load ptr, ptr %2, align 8
  %4 = getelementptr inbounds %"class.glslang::TIntermConstantUnion", ptr %3, i32 0, i32 1
  ret ptr %4
}

; Function Attrs: mustprogress nounwind uwtable
define linkonce_odr void @_ZN7glslang11TArraySizesC2Ev(ptr noundef nonnull align 8 dereferenceable(22) %0) unnamed_addr #0 comdat align 2 {
  %2 = alloca ptr, align 8
  store ptr %0, ptr %2, align 8
  %3 = load ptr, ptr %2, align 8
  %4 = getelementptr inbounds %"struct.glslang::TArraySizes", ptr %3, i32 0, i32 0
  call void @_ZN7glslang17TSmallArrayVectorC2Ev(ptr noundef nonnull align 8 dereferenceable(16) %4)
  %5 = getelementptr inbounds %"struct.glslang::TArraySizes", ptr %3, i32 0, i32 1
  store i32 0, ptr %5, align 8
  %6 = getelementptr inbounds %"struct.glslang::TArraySizes", ptr %3, i32 0, i32 2
  store i8 1, ptr %6, align 4
  %7 = getelementptr inbounds %"struct.glslang::TArraySizes", ptr %3, i32 0, i32 3
  store i8 0, ptr %7, align 1
  ret void
}

; Function Attrs: mustprogress nounwind uwtable
define linkonce_odr noundef ptr @_ZN7glslang11TArraySizesnwEm(i64 noundef %0) #0 comdat align 2 {
  %2 = alloca i64, align 8
  store i64 %0, ptr %2, align 8
  %3 = call noundef nonnull align 8 dereferenceable(96) ptr @_ZN7glslang22GetThreadPoolAllocatorEv()
  %4 = load i64, ptr %2, align 8
  %5 = call noundef ptr @_ZN7glslang14TPoolAllocator8allocateEm(ptr noundef nonnull align 8 dereferenceable(96) %3, i64 noundef %4)
  ret ptr %5
}

; Function Attrs: mustprogress nounwind uwtable
define void @_ZN7glslang11HlslGrammar8expectedEPKc(ptr noundef nonnull align 8 dereferenceable(360) %0, ptr noundef %1) #0 align 2 {
  %3 = alloca ptr, align 8
  %4 = alloca ptr, align 8
  store ptr %0, ptr %3, align 8
  store ptr %1, ptr %4, align 8
  %5 = load ptr, ptr %3, align 8
  %6 = getelementptr inbounds %"class.glslang::HlslGrammar", ptr %5, i32 0, i32 1
  %7 = load ptr, ptr %6, align 8
  %8 = getelementptr inbounds %"class.glslang::HlslTokenStream", ptr %5, i32 0, i32 1
  %9 = getelementptr inbounds %"struct.glslang::HlslToken", ptr %8, i32 0, i32 0
  %10 = load ptr, ptr %4, align 8
  %11 = load ptr, ptr %7, align 8
  %12 = getelementptr inbounds ptr, ptr %11, i64 43
  %13 = load ptr, ptr %12, align 8
  call void (ptr, ptr, ptr, ptr, ptr, ...) %13(ptr noundef nonnull align 8 dereferenceable(1280) %7, ptr noundef nonnull align 8 dereferenceable(24) %9, ptr noundef @.str, ptr noundef %10, ptr noundef @.str.1)
  ret void
}

; Function Attrs: mustprogress nounwind uwtable
define noundef zeroext i1 @_ZN7glslang11HlslGrammar10acceptTypeERNS_5TTypeE(ptr noundef nonnull align 8 dereferenceable(360) %0, ptr noundef nonnull align 8 dereferenceable(152) %1) #0 align 2 {
  %3 = alloca ptr, align 8
  %4 = alloca ptr, align 8
  %5 = alloca ptr, align 8
  store ptr %0, ptr %3, align 8
  store ptr %1, ptr %4, align 8
  %6 = load ptr, ptr %3, align 8
  store ptr null, ptr %5, align 8
  %7 = load ptr, ptr %4, align 8
  %8 = call noundef zeroext i1 @_ZN7glslang11HlslGrammar10acceptTypeERNS_5TTypeERP11TIntermNode(ptr noundef nonnull align 8 dereferenceable(360) %6, ptr noundef nonnull align 8 dereferenceable(152) %7, ptr noundef nonnull align 8 dereferenceable(8) %5)
  ret i1 %8
}

; Function Attrs: mustprogress nounwind uwtable
define noundef zeroext i1 @_ZN7glslang11HlslGrammar26acceptTessellationDeclTypeERNS_16TBuiltInVariableE(ptr noundef nonnull align 8 dereferenceable(360) %0, ptr noundef nonnull align 4 dereferenceable(4) %1) #0 align 2 {
  %3 = alloca i1, align 1
  %4 = alloca ptr, align 8
  %5 = alloca ptr, align 8
  %6 = alloca i32, align 4
  store ptr %0, ptr %4, align 8
  store ptr %1, ptr %5, align 8
  %7 = load ptr, ptr %4, align 8
  %8 = call noundef i32 @_ZNK7glslang15HlslTokenStream4peekEv(ptr noundef nonnull align 8 dereferenceable(324) %7)
  store i32 %8, ptr %6, align 4
  %9 = load i32, ptr %6, align 4
  switch i32 %9, label %14 [
    i32 33, label %10
    i32 34, label %12
  ]

10:                                               ; preds = %2
  %11 = load ptr, ptr %5, align 8
  store i32 142, ptr %11, align 4
  br label %15

12:                                               ; preds = %2
  %13 = load ptr, ptr %5, align 8
  store i32 141, ptr %13, align 4
  br label %15

14:                                               ; preds = %2
  store i1 false, ptr %3, align 1
  br label %16

15:                                               ; preds = %12, %10
  call void @_ZN7glslang15HlslTokenStream12advanceTokenEv(ptr noundef nonnull align 8 dereferenceable(324) %7)
  store i1 true, ptr %3, align 1
  br label %16

16:                                               ; preds = %15, %14
  %17 = load i1, ptr %3, align 1
  ret i1 %17
}

; Function Attrs: mustprogress nounwind uwtable
define noundef zeroext i1 @_ZN7glslang11HlslGrammar35acceptTessellationPatchTemplateTypeERNS_5TTypeE(ptr noundef nonnull align 8 dereferenceable(360) %0, ptr noundef nonnull align 8 dereferenceable(152) %1) #0 align 2 {
  %3 = alloca i1, align 1
  %4 = alloca ptr, align 8
  %5 = alloca ptr, align 8
  %6 = alloca i32, align 4
  %7 = alloca ptr, align 8
  %8 = alloca ptr, align 8
  store ptr %0, ptr %4, align 8
  store ptr %1, ptr %5, align 8
  %9 = load ptr, ptr %4, align 8
  %10 = call noundef zeroext i1 @_ZN7glslang11HlslGrammar26acceptTessellationDeclTypeERNS_16TBuiltInVariableE(ptr noundef nonnull align 8 dereferenceable(360) %9, ptr noundef nonnull align 4 dereferenceable(4) %6)
  br i1 %10, label %12, label %11

11:                                               ; preds = %2
  store i1 false, ptr %3, align 1
  br label %57

12:                                               ; preds = %2
  %13 = call noundef zeroext i1 @_ZN7glslang15HlslTokenStream16acceptTokenClassENS_15EHlslTokenClassE(ptr noundef nonnull align 8 dereferenceable(324) %9, i32 noundef 373)
  br i1 %13, label %15, label %14

14:                                               ; preds = %12
  store i1 false, ptr %3, align 1
  br label %57

15:                                               ; preds = %12
  %16 = load ptr, ptr %5, align 8
  %17 = call noundef zeroext i1 @_ZN7glslang11HlslGrammar10acceptTypeERNS_5TTypeE(ptr noundef nonnull align 8 dereferenceable(360) %9, ptr noundef nonnull align 8 dereferenceable(152) %16)
  br i1 %17, label %19, label %18

18:                                               ; preds = %15
  call void @_ZN7glslang11HlslGrammar8expectedEPKc(ptr noundef nonnull align 8 dereferenceable(360) %9, ptr noundef @.str.48)
  store i1 false, ptr %3, align 1
  br label %57

19:                                               ; preds = %15
  %20 = call noundef zeroext i1 @_ZN7glslang15HlslTokenStream16acceptTokenClassENS_15EHlslTokenClassE(ptr noundef nonnull align 8 dereferenceable(324) %9, i32 noundef 362)
  br i1 %20, label %22, label %21

21:                                               ; preds = %19
  store i1 false, ptr %3, align 1
  br label %57

22:                                               ; preds = %19
  %23 = call noundef zeroext i1 @_ZNK7glslang15HlslTokenStream14peekTokenClassENS_15EHlslTokenClassE(ptr noundef nonnull align 8 dereferenceable(324) %9, i32 noundef 317)
  br i1 %23, label %25, label %24

24:                                               ; preds = %22
  call void @_ZN7glslang11HlslGrammar8expectedEPKc(ptr noundef nonnull align 8 dereferenceable(360) %9, ptr noundef @.str.46)
  store i1 false, ptr %3, align 1
  br label %57

25:                                               ; preds = %22
  %26 = call noundef zeroext i1 @_ZN7glslang11HlslGrammar13acceptLiteralERPNS_12TIntermTypedE(ptr noundef nonnull align 8 dereferenceable(360) %9, ptr noundef nonnull align 8 dereferenceable(8) %7)
  br i1 %26, label %28, label %27

27:                                               ; preds = %25
  store i1 false, ptr %3, align 1
  br label %57

28:                                               ; preds = %25
  %29 = call noundef ptr @_ZN7glslang11TArraySizesnwEm(i64 noundef 24)
  call void @_ZN7glslang11TArraySizesC2Ev(ptr noundef nonnull align 8 dereferenceable(22) %29)
  store ptr %29, ptr %8, align 8
  %30 = load ptr, ptr %8, align 8
  %31 = load ptr, ptr %7, align 8
  %32 = load ptr, ptr %31, align 8
  %33 = getelementptr inbounds ptr, ptr %32, i64 5
  %34 = load ptr, ptr %33, align 8
  %35 = call noundef ptr %34(ptr noundef nonnull align 8 dereferenceable(32) %31)
  %36 = call noundef nonnull align 8 dereferenceable(16) ptr @_ZNK7glslang20TIntermConstantUnion13getConstArrayEv(ptr noundef nonnull align 8 dereferenceable(201) %35)
  %37 = call noundef nonnull align 8 dereferenceable(12) ptr @_ZNK7glslang16TConstUnionArrayixEm(ptr noundef nonnull align 8 dereferenceable(16) %36, i64 noundef 0)
  %38 = call noundef i32 @_ZNK7glslang11TConstUnion9getIConstEv(ptr noundef nonnull align 8 dereferenceable(12) %37)
  call void @_ZN7glslang11TArraySizes12addInnerSizeEi(ptr noundef nonnull align 8 dereferenceable(22) %30, i32 noundef %38)
  %39 = load ptr, ptr %5, align 8
  %40 = load ptr, ptr %8, align 8
  call void @_ZN7glslang5TType18transferArraySizesEPNS_11TArraySizesE(ptr noundef nonnull align 8 dereferenceable(152) %39, ptr noundef %40)
  %41 = load i32, ptr %6, align 4
  %42 = load ptr, ptr %5, align 8
  %43 = load ptr, ptr %42, align 8
  %44 = getelementptr inbounds ptr, ptr %43, i64 10
  %45 = load ptr, ptr %44, align 8
  %46 = call noundef nonnull align 8 dereferenceable(80) ptr %45(ptr noundef nonnull align 8 dereferenceable(152) %42)
  %47 = getelementptr inbounds %"class.glslang::TQualifier", ptr %46, i32 0, i32 1
  %48 = zext i32 %41 to i64
  %49 = load i64, ptr %47, align 8
  %50 = and i64 %48, 511
  %51 = shl i64 %50, 7
  %52 = and i64 %49, -65409
  %53 = or i64 %52, %51
  store i64 %53, ptr %47, align 8
  %54 = call noundef zeroext i1 @_ZN7glslang15HlslTokenStream16acceptTokenClassENS_15EHlslTokenClassE(ptr noundef nonnull align 8 dereferenceable(324) %9, i32 noundef 374)
  br i1 %54, label %56, label %55

55:                                               ; preds = %28
  call void @_ZN7glslang11HlslGrammar8expectedEPKc(ptr noundef nonnull align 8 dereferenceable(360) %9, ptr noundef @.str.47)
  store i1 false, ptr %3, align 1
  br label %57

56:                                               ; preds = %28
  store i1 true, ptr %3, align 1
  br label %57

57:                                               ; preds = %56, %55, %27, %24, %21, %18, %14, %11
  %58 = load i1, ptr %3, align 1
  ret i1 %58
}