; Function Attrs: mustprogress nounwind uwtable
define noundef zeroext i1 @_ZN7glslang11HlslGrammar35acceptTessellationPatchTemplateTypeERNS_5TTypeE(ptr noundef nonnull align 8 dereferenceable(360) %0, ptr noundef nonnull align 8 dereferenceable(152) %1) local_unnamed_addr #0 align 2 {
  %3 = alloca ptr, align 8
  %4 = alloca ptr, align 8
  %5 = tail call noundef i32 @_ZNK7glslang15HlslTokenStream4peekEv(ptr noundef nonnull align 8 dereferenceable(324) %0) #16
  switch i32 %5, label %_ZN7glslang11HlslGrammar26acceptTessellationDeclTypeERNS_16TBuiltInVariableE.exit [
    i32 33, label %7
    i32 34, label %6
  ]

6:                                                ; preds = %2
  br label %7

7:                                                ; preds = %2, %6
  %storemerge.i = phi i64 [ 18048, %6 ], [ 18176, %2 ]
  tail call void @_ZN7glslang15HlslTokenStream12advanceTokenEv(ptr noundef nonnull align 8 dereferenceable(324) %0) #16
  %8 = tail call noundef zeroext i1 @_ZN7glslang15HlslTokenStream16acceptTokenClassENS_15EHlslTokenClassE(ptr noundef nonnull align 8 dereferenceable(324) %0, i32 noundef 373) #16
  br i1 %8, label %9, label %_ZN7glslang11HlslGrammar26acceptTessellationDeclTypeERNS_16TBuiltInVariableE.exit

9:                                                ; preds = %7
  call void @llvm.lifetime.start.p0(i64 8, ptr nonnull %3)
  store ptr null, ptr %3, align 8
  %10 = call noundef zeroext i1 @_ZN7glslang11HlslGrammar10acceptTypeERNS_5TTypeERP11TIntermNode(ptr noundef nonnull align 8 dereferenceable(360) %0, ptr noundef nonnull align 8 dereferenceable(152) %1, ptr noundef nonnull align 8 dereferenceable(8) %3)
  call void @llvm.lifetime.end.p0(i64 8, ptr nonnull %3)
  br i1 %10, label %11, label %_ZN7glslang11HlslGrammar26acceptTessellationDeclTypeERNS_16TBuiltInVariableE.exit.sink.split

11:                                               ; preds = %9
  %12 = tail call noundef zeroext i1 @_ZN7glslang15HlslTokenStream16acceptTokenClassENS_15EHlslTokenClassE(ptr noundef nonnull align 8 dereferenceable(324) %0, i32 noundef 362) #16
  br i1 %12, label %13, label %_ZN7glslang11HlslGrammar26acceptTessellationDeclTypeERNS_16TBuiltInVariableE.exit

13:                                               ; preds = %11
  %14 = tail call noundef zeroext i1 @_ZNK7glslang15HlslTokenStream14peekTokenClassENS_15EHlslTokenClassE(ptr noundef nonnull align 8 dereferenceable(324) %0, i32 noundef 317) #16
  br i1 %14, label %15, label %_ZN7glslang11HlslGrammar26acceptTessellationDeclTypeERNS_16TBuiltInVariableE.exit.sink.split

15:                                               ; preds = %13
  %16 = call noundef zeroext i1 @_ZN7glslang11HlslGrammar13acceptLiteralERPNS_12TIntermTypedE(ptr noundef nonnull align 8 dereferenceable(360) %0, ptr noundef nonnull align 8 dereferenceable(8) %4)
  br i1 %16, label %17, label %_ZN7glslang11HlslGrammar26acceptTessellationDeclTypeERNS_16TBuiltInVariableE.exit

17:                                               ; preds = %15
  %18 = tail call noundef nonnull align 8 dereferenceable(96) ptr @_ZN7glslang22GetThreadPoolAllocatorEv() #16
  %19 = tail call noundef ptr @_ZN7glslang14TPoolAllocator8allocateEm(ptr noundef nonnull align 8 dereferenceable(96) %18, i64 noundef 24) #16
  store ptr getelementptr inbounds inrange(-16, 16) (i8, ptr @_ZTVN7glslang17TSmallArrayVectorE, i64 16), ptr %19, align 8
  %20 = getelementptr inbounds i8, ptr %19, i64 8
  store ptr null, ptr %20, align 8
  %21 = getelementptr inbounds i8, ptr %19, i64 16
  store i32 0, ptr %21, align 8
  %22 = getelementptr inbounds i8, ptr %19, i64 20
  store i8 1, ptr %22, align 4
  %23 = getelementptr inbounds i8, ptr %19, i64 21
  store i8 0, ptr %23, align 1
  %24 = load ptr, ptr %4, align 8
  %25 = load ptr, ptr %24, align 8
  %26 = getelementptr inbounds i8, ptr %25, i64 40
  %27 = load ptr, ptr %26, align 8
  %28 = tail call noundef ptr %27(ptr noundef nonnull align 8 dereferenceable(32) %24) #16
  %29 = getelementptr inbounds i8, ptr %28, i64 192
  %30 = load ptr, ptr %29, align 8
  %31 = getelementptr inbounds i8, ptr %30, i64 8
  %32 = load ptr, ptr %31, align 8
  %33 = load i32, ptr %32, align 8
  tail call void @_ZN7glslang17TSmallArrayVector9push_backEjPNS_12TIntermTypedE(ptr noundef nonnull align 8 dereferenceable(16) %19, i32 noundef %33, ptr noundef null)
  %34 = getelementptr inbounds i8, ptr %1, i64 96
  store ptr %19, ptr %34, align 8
  %35 = load ptr, ptr %1, align 8
  %36 = getelementptr inbounds i8, ptr %35, i64 80
  %37 = load ptr, ptr %36, align 8
  %38 = tail call noundef nonnull align 8 dereferenceable(80) ptr %37(ptr noundef nonnull align 8 dereferenceable(152) %1) #16
  %39 = getelementptr inbounds i8, ptr %38, i64 8
  %40 = load i64, ptr %39, align 8
  %41 = and i64 %40, -65409
  %42 = or disjoint i64 %41, %storemerge.i
  store i64 %42, ptr %39, align 8
  %43 = tail call noundef zeroext i1 @_ZN7glslang15HlslTokenStream16acceptTokenClassENS_15EHlslTokenClassE(ptr noundef nonnull align 8 dereferenceable(324) %0, i32 noundef 374) #16
  br i1 %43, label %_ZN7glslang11HlslGrammar26acceptTessellationDeclTypeERNS_16TBuiltInVariableE.exit, label %_ZN7glslang11HlslGrammar26acceptTessellationDeclTypeERNS_16TBuiltInVariableE.exit.sink.split

_ZN7glslang11HlslGrammar26acceptTessellationDeclTypeERNS_16TBuiltInVariableE.exit.sink.split: ; preds = %17, %13, %9
  %.str.47.sink = phi ptr [ @.str.48, %9 ], [ @.str.46, %13 ], [ @.str.47, %17 ]
  %44 = getelementptr inbounds i8, ptr %0, i64 328
  %45 = load ptr, ptr %44, align 8
  %46 = getelementptr inbounds i8, ptr %0, i64 8
  %47 = load ptr, ptr %45, align 8
  %48 = getelementptr inbounds i8, ptr %47, i64 344
  %49 = load ptr, ptr %48, align 8
  tail call void (ptr, ptr, ptr, ptr, ptr, ...) %49(ptr noundef nonnull align 8 dereferenceable(1280) %45, ptr noundef nonnull align 8 dereferenceable(24) %46, ptr noundef nonnull @.str, ptr noundef nonnull %.str.47.sink, ptr noundef nonnull @.str.1) #16
  br label %_ZN7glslang11HlslGrammar26acceptTessellationDeclTypeERNS_16TBuiltInVariableE.exit

_ZN7glslang11HlslGrammar26acceptTessellationDeclTypeERNS_16TBuiltInVariableE.exit: ; preds = %_ZN7glslang11HlslGrammar26acceptTessellationDeclTypeERNS_16TBuiltInVariableE.exit.sink.split, %2, %17, %15, %11, %7
  %.0 = phi i1 [ false, %7 ], [ false, %11 ], [ false, %15 ], [ true, %17 ], [ false, %2 ], [ false, %_ZN7glslang11HlslGrammar26acceptTessellationDeclTypeERNS_16TBuiltInVariableE.exit.sink.split ]
  ret i1 %.0
}